target datalayout = "e-m:e-p270:32:32-p271:32:32-p272:64:64-i64:64-i128:128-f80:128-n8:16:32:64-S128"
target triple = "x86_64-pc-linux-gnu"

%struct.Vec_Int_t_ = type { i32, i32, ptr }

; Function Attrs: inlinehint nounwind uwtable
define internal i32 @Vec_IntEntry(ptr noundef %0, i32 noundef %1) #2 {
  %3 = alloca ptr, align 8
  %4 = alloca i32, align 4
  store ptr %0, ptr %3, align 8, !tbaa !34
  store i32 %1, ptr %4, align 4, !tbaa !12
  %5 = load ptr, ptr %3, align 8, !tbaa !34
  %6 = getelementptr inbounds nuw %struct.Vec_Int_t_, ptr %5, i32 0, i32 2
  %7 = load ptr, ptr %6, align 8, !tbaa !37
  %8 = load i32, ptr %4, align 4, !tbaa !12
  %9 = sext i32 %8 to i64
  %10 = getelementptr inbounds i32, ptr %7, i64 %9
  %11 = load i32, ptr %10, align 4, !tbaa !12
  ret i32 %11
}

; Function Attrs: inlinehint nounwind uwtable
define internal i32 @Vec_IntSize(ptr noundef %0) #2 {
  %2 = alloca ptr, align 8
  store ptr %0, ptr %2, align 8, !tbaa !34
  %3 = load ptr, ptr %2, align 8, !tbaa !34
  %4 = getelementptr inbounds nuw %struct.Vec_Int_t_, ptr %3, i32 0, i32 1
  %5 = load i32, ptr %4, align 4, !tbaa !35
  ret i32 %5
}

; Function Attrs: inlinehint nounwind uwtable
define internal void @Cec_ManPatStore(ptr noundef %0, ptr noundef %1) #2 {
  %3 = alloca ptr, align 8
  %4 = alloca ptr, align 8
  %5 = alloca i32, align 4
  %6 = alloca i32, align 4
  %7 = alloca i32, align 4
  store ptr %0, ptr %3, align 8, !tbaa !44
  store ptr %1, ptr %4, align 8, !tbaa !34
  call void @llvm.lifetime.start.p0(i64 4, ptr %5) #11
  call void @llvm.lifetime.start.p0(i64 4, ptr %6) #11
  call void @llvm.lifetime.start.p0(i64 4, ptr %7) #11
  %8 = load ptr, ptr %3, align 8, !tbaa !44
  %9 = load ptr, ptr %4, align 8, !tbaa !34
  %10 = call i32 @Vec_IntSize(ptr noundef %9)
  call void @Cec_ManPatStoreNum(ptr noundef %8, i32 noundef %10)
  %11 = load ptr, ptr %4, align 8, !tbaa !34
  %12 = call i32 @Vec_IntEntry(ptr noundef %11, i32 noundef 0)
  store i32 %12, ptr %7, align 4, !tbaa !12
  %13 = load ptr, ptr %3, align 8, !tbaa !44
  %14 = load i32, ptr %7, align 4, !tbaa !12
  call void @Cec_ManPatStoreNum(ptr noundef %13, i32 noundef %14)
  store i32 1, ptr %5, align 4, !tbaa !12
  br label %15

15:                                               ; preds = %32, %2
  %16 = load i32, ptr %5, align 4, !tbaa !12
  %17 = load ptr, ptr %4, align 8, !tbaa !34
  %18 = call i32 @Vec_IntSize(ptr noundef %17)
  %19 = icmp slt i32 %16, %18
  br i1 %19, label %20, label %24

20:                                               ; preds = %15
  %21 = load ptr, ptr %4, align 8, !tbaa !34
  %22 = load i32, ptr %5, align 4, !tbaa !12
  %23 = call i32 @Vec_IntEntry(ptr noundef %21, i32 noundef %22)
  store i32 %23, ptr %6, align 4, !tbaa !12
  br label %24

24:                                               ; preds = %20, %15
  %25 = phi i1 [ false, %15 ], [ true, %20 ]
  br i1 %25, label %26, label %35

26:                                               ; preds = %24
  %27 = load ptr, ptr %3, align 8, !tbaa !44
  %28 = load i32, ptr %6, align 4, !tbaa !12
  %29 = load i32, ptr %7, align 4, !tbaa !12
  %30 = sub nsw i32 %28, %29
  call void @Cec_ManPatStoreNum(ptr noundef %27, i32 noundef %30)
  %31 = load i32, ptr %6, align 4, !tbaa !12
  store i32 %31, ptr %7, align 4, !tbaa !12
  br label %32

32:                                               ; preds = %26
  %33 = load i32, ptr %5, align 4, !tbaa !12
  %34 = add nsw i32 %33, 1
  store i32 %34, ptr %5, align 4, !tbaa !12
  br label %15, !llvm.loop !61

35:                                               ; preds = %24
  call void @llvm.lifetime.end.p0(i64 4, ptr %7) #11
  call void @llvm.lifetime.end.p0(i64 4, ptr %6) #11
  call void @llvm.lifetime.end.p0(i64 4, ptr %5) #11
  ret void
}

; Function Attrs: inlinehint nounwind uwtable
define internal void @Vec_IntSort(ptr noundef %0, i32 noundef %1) #2 {
  %3 = alloca ptr, align 8
  %4 = alloca i32, align 4
  store ptr %0, ptr %3, align 8, !tbaa !34
  store i32 %1, ptr %4, align 4, !tbaa !12
  %5 = load i32, ptr %4, align 4, !tbaa !12
  %6 = icmp ne i32 %5, 0
  br i1 %6, label %7, label %15

7:                                                ; preds = %2
  %8 = load ptr, ptr %3, align 8, !tbaa !34
  %9 = getelementptr inbounds nuw %struct.Vec_Int_t_, ptr %8, i32 0, i32 2
  %10 = load ptr, ptr %9, align 8, !tbaa !37
  %11 = load ptr, ptr %3, align 8, !tbaa !34
  %12 = getelementptr inbounds nuw %struct.Vec_Int_t_, ptr %11, i32 0, i32 1
  %13 = load i32, ptr %12, align 4, !tbaa !35
  %14 = sext i32 %13 to i64
  call void @qsort(ptr noundef %10, i64 noundef %14, i64 noundef 4, ptr noundef @Vec_IntSortCompare2)
  br label %23

15:                                               ; preds = %2
  %16 = load ptr, ptr %3, align 8, !tbaa !34
  %17 = getelementptr inbounds nuw %struct.Vec_Int_t_, ptr %16, i32 0, i32 2
  %18 = load ptr, ptr %17, align 8, !tbaa !37
  %19 = load ptr, ptr %3, align 8, !tbaa !34
  %20 = getelementptr inbounds nuw %struct.Vec_Int_t_, ptr %19, i32 0, i32 1
  %21 = load i32, ptr %20, align 4, !tbaa !35
  %22 = sext i32 %21 to i64
  call void @qsort(ptr noundef %18, i64 noundef %22, i64 noundef 4, ptr noundef @Vec_IntSortCompare1)
  br label %23

23:                                               ; preds = %15, %7
  ret void
}

; Function Attrs: nounwind uwtable
define void @Cec_ManPatSavePatternCSat(ptr noundef %0, ptr noundef %1) #0 {
  %3 = alloca ptr, align 8
  %4 = alloca ptr, align 8
  store ptr %0, ptr %3, align 8, !tbaa !44
  store ptr %1, ptr %4, align 8, !tbaa !34
  %5 = load ptr, ptr %4, align 8, !tbaa !34
  call void @Vec_IntSort(ptr noundef %5, i32 noundef 0)
  %6 = load ptr, ptr %3, align 8, !tbaa !44
  %7 = load ptr, ptr %4, align 8, !tbaa !34
  call void @Cec_ManPatStore(ptr noundef %6, ptr noundef %7)
  ret void
}