; Function Attrs: nounwind uwtable
define void @Cec_ManPatSavePatternCSat(ptr noundef readonly captures(none) %0, ptr noundef readonly captures(none) %1) local_unnamed_addr #0 {
  %3 = getelementptr i8, ptr %1, i64 4
  %.val = load i32, ptr %3, align 4, !tbaa !31
  %4 = getelementptr i8, ptr %1, i64 8
  %.val3 = load ptr, ptr %4, align 8, !tbaa !33
  %5 = sext i32 %.val to i64
  tail call void @qsort(ptr noundef %.val3, i64 noundef %5, i64 noundef 4, ptr noundef nonnull @Vec_IntSortCompare1) #18
  %.val14.i = load i32, ptr %3, align 4, !tbaa !31
  tail call fastcc void @Cec_ManPatStoreNum(ptr noundef readonly %0, i32 noundef %.val14.i)
  %.val16.i = load ptr, ptr %4, align 8, !tbaa !33
  %6 = load i32, ptr %.val16.i, align 4, !tbaa !29
  tail call fastcc void @Cec_ManPatStoreNum(ptr noundef readonly %0, i32 noundef %6)
  %.val17.i = load i32, ptr %3, align 4, !tbaa !31
  %7 = icmp sgt i32 %.val17.i, 1
  br i1 %7, label %.lr.ph.i, label %Cec_ManPatStore.exit

.lr.ph.i:                                         ; preds = %2, %.lr.ph.i
  %indvars.iv.i = phi i64 [ %indvars.iv.next.i, %.lr.ph.i ], [ 1, %2 ]
  %.019.i = phi i32 [ %9, %.lr.ph.i ], [ %6, %2 ]
  %.val15.i = load ptr, ptr %4, align 8, !tbaa !33
  %8 = getelementptr inbounds nuw i32, ptr %.val15.i, i64 %indvars.iv.i
  %9 = load i32, ptr %8, align 4, !tbaa !29
  %10 = sub nsw i32 %9, %.019.i
  tail call fastcc void @Cec_ManPatStoreNum(ptr noundef readonly %0, i32 noundef %10)
  %indvars.iv.next.i = add nuw nsw i64 %indvars.iv.i, 1
  %.val.i = load i32, ptr %3, align 4, !tbaa !31
  %11 = sext i32 %.val.i to i64
  %12 = icmp slt i64 %indvars.iv.next.i, %11
  br i1 %12, label %.lr.ph.i, label %Cec_ManPatStore.exit, !llvm.loop !58

Cec_ManPatStore.exit:                             ; preds = %.lr.ph.i, %2
  ret void
}